target datalayout = "e-m:e-p270:32:32-p271:32:32-p272:64:64-i64:64-i128:128-f80:128-n8:16:32:64-S128"
target triple = "x86_64-pc-linux-gnu"

%struct.CastContext = type { ptr, ptr, ptr, ptr, ptr, i32, i32 }
%struct.Expr_ = type { ptr, %union.SourceSpan, i16, %union.anon.29 }
%union.SourceSpan = type { i64 }
%union.anon.29 = type { %struct.ExprAnySwitch }
%struct.ExprAnySwitch = type { i8, %union.anon.31 }
%union.anon.31 = type { %struct.anon.32 }
%struct.anon.32 = type { ptr, %union.SourceSpan, ptr }
%struct.Type_ = type { i32, ptr, ptr, ptr, %union.anon.85, ptr, ptr, %union.anon.87 }
%union.anon.85 = type { ptr }
%union.anon.87 = type { %struct.TypeFunction }
%struct.TypeFunction = type { ptr, ptr, ptr }
%struct.TypeArray = type { ptr, i32 }
%struct.ExprConst = type { i16, %union.anon.38 }
%union.anon.38 = type { %struct.Int }
%struct.Int = type { %struct.Int128_, i32 }
%struct.Int128_ = type { i64, i64 }
%struct.VHeader_ = type { i32, i32, [0 x i8] }

@.str.31 = private unnamed_addr constant [58 x i8] c"%s may only be initialized with 0 elements or %d, not %d.\00", align 1

; Function Attrs: nounwind uwtable
define internal zeroext i1 @rule_ulist_to_vecarr(ptr noundef %0, i1 noundef zeroext %1, i1 noundef zeroext %2) #0 {
  %4 = alloca i32, align 4
  %5 = alloca ptr, align 8
  %6 = alloca ptr, align 8
  %7 = alloca i32, align 4
  %8 = alloca ptr, align 8
  %9 = alloca ptr, align 8
  %10 = alloca i1, align 1
  %11 = alloca ptr, align 8
  %12 = alloca i8, align 1
  %13 = alloca i8, align 1
  %14 = alloca ptr, align 8
  %15 = alloca i32, align 4
  %16 = alloca ptr, align 8
  %17 = alloca ptr, align 8
  %18 = alloca i32, align 4
  %19 = alloca i32, align 4
  %20 = alloca ptr, align 8
  store ptr %0, ptr %11, align 8
  %21 = zext i1 %1 to i8
  store i8 %21, ptr %12, align 1
  %22 = zext i1 %2 to i8
  store i8 %22, ptr %13, align 1
  %23 = load ptr, ptr %11, align 8
  %24 = getelementptr inbounds %struct.CastContext, ptr %23, i32 0, i32 1
  %25 = load ptr, ptr %24, align 8
  %26 = getelementptr inbounds %struct.Expr_, ptr %25, i32 0, i32 3
  %27 = getelementptr inbounds %struct.ExprConst, ptr %26, i32 0, i32 1
  %28 = load ptr, ptr %27, align 8
  store ptr %28, ptr %14, align 8
  %29 = load ptr, ptr %14, align 8
  store ptr %29, ptr %5, align 8
  %30 = load ptr, ptr %5, align 8
  %31 = icmp ne ptr %30, null
  br i1 %31, label %33, label %32

32:                                               ; preds = %3
  store i32 0, ptr %4, align 4
  br label %38

33:                                               ; preds = %3
  %34 = load ptr, ptr %5, align 8
  store ptr %34, ptr %6, align 8
  %35 = load ptr, ptr %6, align 8
  %36 = getelementptr inbounds %struct.VHeader_, ptr %35, i64 -1
  %37 = load i32, ptr %36, align 4
  store i32 %37, ptr %4, align 4
  br label %38

38:                                               ; preds = %33, %32
  %39 = load i32, ptr %4, align 4
  store i32 %39, ptr %15, align 4
  %40 = load i32, ptr %15, align 4
  %41 = icmp ne i32 %40, 0
  br i1 %41, label %43, label %42

42:                                               ; preds = %38
  store i1 true, ptr %10, align 1
  br label %121

43:                                               ; preds = %38
  %44 = load i32, ptr %15, align 4
  %45 = load ptr, ptr %11, align 8
  %46 = getelementptr inbounds %struct.CastContext, ptr %45, i32 0, i32 4
  %47 = load ptr, ptr %46, align 8
  %48 = getelementptr inbounds %struct.Type_, ptr %47, i32 0, i32 7
  %49 = getelementptr inbounds %struct.TypeArray, ptr %48, i32 0, i32 1
  %50 = load i32, ptr %49, align 8
  %51 = icmp ne i32 %44, %50
  br i1 %51, label %52, label %76

52:                                               ; preds = %43
  %53 = load i8, ptr %13, align 1
  %54 = trunc i8 %53 to i1
  br i1 %54, label %55, label %56

55:                                               ; preds = %52
  store i1 false, ptr %10, align 1
  br label %121

56:                                               ; preds = %52
  br label %57

57:                                               ; preds = %56
  %58 = load ptr, ptr %11, align 8
  %59 = getelementptr inbounds %struct.CastContext, ptr %58, i32 0, i32 1
  %60 = load ptr, ptr %59, align 8
  %61 = getelementptr inbounds %struct.Expr_, ptr %60, i32 0, i32 1
  %62 = load ptr, ptr %11, align 8
  %63 = getelementptr inbounds %struct.CastContext, ptr %62, i32 0, i32 3
  %64 = load ptr, ptr %63, align 8
  %65 = call ptr @type_quoted_error_string(ptr noundef %64)
  %66 = load ptr, ptr %11, align 8
  %67 = getelementptr inbounds %struct.CastContext, ptr %66, i32 0, i32 4
  %68 = load ptr, ptr %67, align 8
  %69 = getelementptr inbounds %struct.Type_, ptr %68, i32 0, i32 7
  %70 = getelementptr inbounds %struct.TypeArray, ptr %69, i32 0, i32 1
  %71 = load i32, ptr %70, align 8
  %72 = load i32, ptr %15, align 4
  %73 = getelementptr inbounds %union.SourceSpan, ptr %61, i32 0, i32 0
  %74 = load i64, ptr %73, align 8
  call void (i64, ptr, ...) @sema_error_at(i64 %74, ptr noundef @.str.31, ptr noundef %65, i32 noundef %71, i32 noundef %72)
  store i1 false, ptr %10, align 1
  br label %121

75:                                               ; No predecessors!
  br label %76

76:                                               ; preds = %75, %43
  %77 = load ptr, ptr %11, align 8
  %78 = getelementptr inbounds %struct.CastContext, ptr %77, i32 0, i32 4
  %79 = load ptr, ptr %78, align 8
  %80 = getelementptr inbounds %struct.Type_, ptr %79, i32 0, i32 7
  %81 = getelementptr inbounds %struct.TypeArray, ptr %80, i32 0, i32 0
  %82 = load ptr, ptr %81, align 8
  store ptr %82, ptr %16, align 8
  %83 = load ptr, ptr %14, align 8
  store ptr %83, ptr %17, align 8
  %84 = load ptr, ptr %17, align 8
  store ptr %84, ptr %8, align 8
  %85 = load ptr, ptr %8, align 8
  %86 = icmp ne ptr %85, null
  br i1 %86, label %88, label %87

87:                                               ; preds = %76
  store i32 0, ptr %7, align 4
  br label %93

88:                                               ; preds = %76
  %89 = load ptr, ptr %8, align 8
  store ptr %89, ptr %9, align 8
  %90 = load ptr, ptr %9, align 8
  %91 = getelementptr inbounds %struct.VHeader_, ptr %90, i64 -1
  %92 = load i32, ptr %91, align 4
  store i32 %92, ptr %7, align 4
  br label %93

93:                                               ; preds = %88, %87
  %94 = load i32, ptr %7, align 4
  store i32 %94, ptr %18, align 4
  store i32 0, ptr %19, align 4
  br label %95

95:                                               ; preds = %115, %93
  %96 = load i32, ptr %19, align 4
  %97 = load i32, ptr %18, align 4
  %98 = icmp ult i32 %96, %97
  br i1 %98, label %99, label %118

99:                                               ; preds = %95
  %100 = load ptr, ptr %17, align 8
  %101 = load i32, ptr %19, align 4
  %102 = zext i32 %101 to i64
  %103 = getelementptr inbounds ptr, ptr %100, i64 %102
  %104 = load ptr, ptr %103, align 8
  store ptr %104, ptr %20, align 8
  %105 = load ptr, ptr %11, align 8
  %106 = getelementptr inbounds %struct.CastContext, ptr %105, i32 0, i32 0
  %107 = load ptr, ptr %106, align 8
  %108 = load ptr, ptr %20, align 8
  %109 = load ptr, ptr %16, align 8
  %110 = load i8, ptr %13, align 1
  %111 = trunc i8 %110 to i1
  %112 = call zeroext i1 @may_cast(ptr noundef %107, ptr noundef %108, ptr noundef %109, i1 noundef zeroext false, i1 noundef zeroext %111)
  br i1 %112, label %114, label %113

113:                                              ; preds = %99
  store i1 false, ptr %10, align 1
  br label %121

114:                                              ; preds = %99
  br label %115

115:                                              ; preds = %114
  %116 = load i32, ptr %19, align 4
  %117 = add i32 %116, 1
  store i32 %117, ptr %19, align 4
  br label %95, !llvm.loop !11

118:                                              ; preds = %95
  br label %119

119:                                              ; preds = %118
  br label %120

120:                                              ; preds = %119
  store i1 true, ptr %10, align 1
  br label %121

121:                                              ; preds = %120, %113, %57, %55, %42
  %122 = load i1, ptr %10, align 1
  ret i1 %122
}