; Function Attrs: nounwind uwtable
define internal noundef zeroext i1 @rule_ulist_to_vecarr(ptr nocapture noundef readonly %0, i1 zeroext %1, i1 noundef zeroext %2) #0 {
  %4 = getelementptr inbounds i8, ptr %0, i64 8
  %5 = load ptr, ptr %4, align 8
  %6 = getelementptr inbounds i8, ptr %5, i64 32
  %7 = load ptr, ptr %6, align 8
  %.not = icmp eq ptr %7, null
  br i1 %.not, label %.thread, label %8

8:                                                ; preds = %3
  %9 = getelementptr inbounds i8, ptr %7, i64 -8
  %10 = load i32, ptr %9, align 4
  %.not34 = icmp eq i32 %10, 0
  br i1 %.not34, label %.thread, label %11

11:                                               ; preds = %8
  %12 = getelementptr inbounds i8, ptr %0, i64 32
  %13 = load ptr, ptr %12, align 8
  %14 = getelementptr inbounds i8, ptr %13, i64 64
  %15 = load i32, ptr %14, align 8
  %.not35 = icmp eq i32 %10, %15
  br i1 %.not35, label %.lr.ph.preheader, label %16

16:                                               ; preds = %11
  br i1 %2, label %.thread, label %17

17:                                               ; preds = %16
  %18 = getelementptr inbounds i8, ptr %5, i64 8
  %19 = getelementptr inbounds i8, ptr %0, i64 24
  %20 = load ptr, ptr %19, align 8
  %21 = tail call ptr @type_quoted_error_string(ptr noundef %20) #10
  %22 = load ptr, ptr %12, align 8
  %23 = getelementptr inbounds i8, ptr %22, i64 64
  %24 = load i32, ptr %23, align 8
  %25 = load i64, ptr %18, align 8
  tail call void (i64, ptr, ...) @sema_error_at(i64 %25, ptr noundef nonnull @.str.31, ptr noundef %21, i32 noundef %24, i32 noundef %10) #10
  br label %.thread

.lr.ph.preheader:                                 ; preds = %11
  %26 = getelementptr inbounds i8, ptr %13, i64 56
  %27 = load ptr, ptr %26, align 8
  %wide.trip.count = zext i32 %10 to i64
  br label %.lr.ph

.lr.ph:                                           ; preds = %.lr.ph, %.lr.ph.preheader
  %indvars.iv = phi i64 [ 0, %.lr.ph.preheader ], [ %indvars.iv.next, %.lr.ph ]
  %28 = getelementptr inbounds ptr, ptr %7, i64 %indvars.iv
  %29 = load ptr, ptr %28, align 8
  %30 = load ptr, ptr %0, align 8
  %31 = tail call zeroext i1 @may_cast(ptr noundef %30, ptr noundef %29, ptr noundef %27, i1 noundef zeroext false, i1 noundef zeroext %2)
  %indvars.iv.next = add nuw nsw i64 %indvars.iv, 1
  %exitcond.not = icmp ne i64 %indvars.iv.next, %wide.trip.count
  %or.cond.not = select i1 %31, i1 %exitcond.not, i1 false
  br i1 %or.cond.not, label %.lr.ph, label %.thread, !llvm.loop !11

.thread:                                          ; preds = %.lr.ph, %3, %16, %8, %17
  %.032 = phi i1 [ false, %17 ], [ true, %8 ], [ false, %16 ], [ true, %3 ], [ %31, %.lr.ph ]
  ret i1 %.032
}